; ModuleID = '14/1418.c'
source_filename = "14/1418.c"
target datalayout = "e-m:e-p270:32:32-p271:32:32-p272:64:64-i64:64-f80:128-n8:16:32:64-S128"
target triple = "x86_64-pc-linux-gnu"

%struct.stu = type { i32, i32, i32, i32 }

@.str = private unnamed_addr constant [3 x i8] c"%d\00", align 1
@.str.1 = private unnamed_addr constant [7 x i8] c"%d%d%d\00", align 1
@score = common dso_local global [100000 x %struct.stu] zeroinitializer, align 16
@.str.2 = private unnamed_addr constant [18 x i8] c"%d %d\0A%d %d\0A%d %d\00", align 1

; Function Attrs: noinline nounwind uwtable
define dso_local i32 @main() #0 {
  %1 = alloca i32, align 4
  %2 = alloca i32, align 4
  %3 = alloca i32, align 4
  %4 = alloca i32, align 4
  %5 = alloca i32, align 4
  %6 = alloca i32, align 4
  %7 = alloca i32, align 4
  %8 = alloca i32, align 4
  %9 = alloca i32, align 4
  store i32 0, i32* %1, align 4
  %10 = call i32 (i8*, ...) @__isoc99_scanf(i8* getelementptr inbounds ([3 x i8], [3 x i8]* @.str, i64 0, i64 0), i32* %2)
  store i32 0, i32* %3, align 4
  br label %11

11:                                               ; preds = %44, %0
  %12 = load i32, i32* %3, align 4
  %13 = load i32, i32* %2, align 4
  %14 = icmp slt i32 %12, %13
  br i1 %14, label %15, label %47

15:                                               ; preds = %11
  %16 = load i32, i32* %3, align 4
  %17 = sext i32 %16 to i64
  %18 = getelementptr inbounds [100000 x %struct.stu], [100000 x %struct.stu]* @score, i64 0, i64 %17
  %19 = getelementptr inbounds %struct.stu, %struct.stu* %18, i32 0, i32 0
  %20 = load i32, i32* %3, align 4
  %21 = sext i32 %20 to i64
  %22 = getelementptr inbounds [100000 x %struct.stu], [100000 x %struct.stu]* @score, i64 0, i64 %21
  %23 = getelementptr inbounds %struct.stu, %struct.stu* %22, i32 0, i32 1
  %24 = load i32, i32* %3, align 4
  %25 = sext i32 %24 to i64
  %26 = getelementptr inbounds [100000 x %struct.stu], [100000 x %struct.stu]* @score, i64 0, i64 %25
  %27 = getelementptr inbounds %struct.stu, %struct.stu* %26, i32 0, i32 2
  %28 = call i32 (i8*, ...) @__isoc99_scanf(i8* getelementptr inbounds ([7 x i8], [7 x i8]* @.str.1, i64 0, i64 0), i32* %19, i32* %23, i32* %27)
  %29 = load i32, i32* %3, align 4
  %30 = sext i32 %29 to i64
  %31 = getelementptr inbounds [100000 x %struct.stu], [100000 x %struct.stu]* @score, i64 0, i64 %30
  %32 = getelementptr inbounds %struct.stu, %struct.stu* %31, i32 0, i32 2
  %33 = load i32, i32* %32, align 8
  %34 = load i32, i32* %3, align 4
  %35 = sext i32 %34 to i64
  %36 = getelementptr inbounds [100000 x %struct.stu], [100000 x %struct.stu]* @score, i64 0, i64 %35
  %37 = getelementptr inbounds %struct.stu, %struct.stu* %36, i32 0, i32 1
  %38 = load i32, i32* %37, align 4
  %39 = add nsw i32 %33, %38
  %40 = load i32, i32* %3, align 4
  %41 = sext i32 %40 to i64
  %42 = getelementptr inbounds [100000 x %struct.stu], [100000 x %struct.stu]* @score, i64 0, i64 %41
  %43 = getelementptr inbounds %struct.stu, %struct.stu* %42, i32 0, i32 3
  store i32 %39, i32* %43, align 4
  br label %44

44:                                               ; preds = %15
  %45 = load i32, i32* %3, align 4
  %46 = add nsw i32 %45, 1
  store i32 %46, i32* %3, align 4
  br label %11

47:                                               ; preds = %11
  store i32 0, i32* %4, align 4
  store i32 0, i32* %5, align 4
  store i32 0, i32* %6, align 4
  store i32 0, i32* %7, align 4
  store i32 0, i32* %8, align 4
  store i32 0, i32* %9, align 4
  store i32 0, i32* %3, align 4
  br label %48

48:                                               ; preds = %118, %47
  %49 = load i32, i32* %3, align 4
  %50 = load i32, i32* %2, align 4
  %51 = icmp slt i32 %49, %50
  br i1 %51, label %52, label %121

52:                                               ; preds = %48
  %53 = load i32, i32* %3, align 4
  %54 = sext i32 %53 to i64
  %55 = getelementptr inbounds [100000 x %struct.stu], [100000 x %struct.stu]* @score, i64 0, i64 %54
  %56 = getelementptr inbounds %struct.stu, %struct.stu* %55, i32 0, i32 3
  %57 = load i32, i32* %56, align 4
  %58 = load i32, i32* %4, align 4
  %59 = icmp sgt i32 %57, %58
  br i1 %59, label %60, label %75

60:                                               ; preds = %52
  %61 = load i32, i32* %5, align 4
  store i32 %61, i32* %6, align 4
  %62 = load i32, i32* %4, align 4
  store i32 %62, i32* %5, align 4
  %63 = load i32, i32* %3, align 4
  %64 = sext i32 %63 to i64
  %65 = getelementptr inbounds [100000 x %struct.stu], [100000 x %struct.stu]* @score, i64 0, i64 %64
  %66 = getelementptr inbounds %struct.stu, %struct.stu* %65, i32 0, i32 3
  %67 = load i32, i32* %66, align 4
  store i32 %67, i32* %4, align 4
  %68 = load i32, i32* %8, align 4
  store i32 %68, i32* %9, align 4
  %69 = load i32, i32* %7, align 4
  store i32 %69, i32* %8, align 4
  %70 = load i32, i32* %3, align 4
  %71 = sext i32 %70 to i64
  %72 = getelementptr inbounds [100000 x %struct.stu], [100000 x %struct.stu]* @score, i64 0, i64 %71
  %73 = getelementptr inbounds %struct.stu, %struct.stu* %72, i32 0, i32 0
  %74 = load i32, i32* %73, align 16
  store i32 %74, i32* %7, align 4
  br label %117

75:                                               ; preds = %52
  %76 = load i32, i32* %3, align 4
  %77 = sext i32 %76 to i64
  %78 = getelementptr inbounds [100000 x %struct.stu], [100000 x %struct.stu]* @score, i64 0, i64 %77
  %79 = getelementptr inbounds %struct.stu, %struct.stu* %78, i32 0, i32 3
  %80 = load i32, i32* %79, align 4
  %81 = load i32, i32* %5, align 4
  %82 = icmp sgt i32 %80, %81
  br i1 %82, label %83, label %96

83:                                               ; preds = %75
  %84 = load i32, i32* %5, align 4
  store i32 %84, i32* %6, align 4
  %85 = load i32, i32* %3, align 4
  %86 = sext i32 %85 to i64
  %87 = getelementptr inbounds [100000 x %struct.stu], [100000 x %struct.stu]* @score, i64 0, i64 %86
  %88 = getelementptr inbounds %struct.stu, %struct.stu* %87, i32 0, i32 3
  %89 = load i32, i32* %88, align 4
  store i32 %89, i32* %5, align 4
  %90 = load i32, i32* %8, align 4
  store i32 %90, i32* %9, align 4
  %91 = load i32, i32* %3, align 4
  %92 = sext i32 %91 to i64
  %93 = getelementptr inbounds [100000 x %struct.stu], [100000 x %struct.stu]* @score, i64 0, i64 %92
  %94 = getelementptr inbounds %struct.stu, %struct.stu* %93, i32 0, i32 0
  %95 = load i32, i32* %94, align 16
  store i32 %95, i32* %8, align 4
  br label %116

96:                                               ; preds = %75
  %97 = load i32, i32* %3, align 4
  %98 = sext i32 %97 to i64
  %99 = getelementptr inbounds [100000 x %struct.stu], [100000 x %struct.stu]* @score, i64 0, i64 %98
  %100 = getelementptr inbounds %struct.stu, %struct.stu* %99, i32 0, i32 3
  %101 = load i32, i32* %100, align 4
  %102 = load i32, i32* %6, align 4
  %103 = icmp sgt i32 %101, %102
  br i1 %103, label %104, label %115

104:                                              ; preds = %96
  %105 = load i32, i32* %3, align 4
  %106 = sext i32 %105 to i64
  %107 = getelementptr inbounds [100000 x %struct.stu], [100000 x %struct.stu]* @score, i64 0, i64 %106
  %108 = getelementptr inbounds %struct.stu, %struct.stu* %107, i32 0, i32 3
  %109 = load i32, i32* %108, align 4
  store i32 %109, i32* %6, align 4
  %110 = load i32, i32* %3, align 4
  %111 = sext i32 %110 to i64
  %112 = getelementptr inbounds [100000 x %struct.stu], [100000 x %struct.stu]* @score, i64 0, i64 %111
  %113 = getelementptr inbounds %struct.stu, %struct.stu* %112, i32 0, i32 0
  %114 = load i32, i32* %113, align 16
  store i32 %114, i32* %9, align 4
  br label %115

115:                                              ; preds = %104, %96
  br label %116

116:                                              ; preds = %115, %83
  br label %117

117:                                              ; preds = %116, %60
  br label %118

118:                                              ; preds = %117
  %119 = load i32, i32* %3, align 4
  %120 = add nsw i32 %119, 1
  store i32 %120, i32* %3, align 4
  br label %48

121:                                              ; preds = %48
  %122 = load i32, i32* %7, align 4
  %123 = load i32, i32* %4, align 4
  %124 = load i32, i32* %8, align 4
  %125 = load i32, i32* %5, align 4
  %126 = load i32, i32* %9, align 4
  %127 = load i32, i32* %6, align 4
  %128 = call i32 (i8*, ...) @printf(i8* getelementptr inbounds ([18 x i8], [18 x i8]* @.str.2, i64 0, i64 0), i32 %122, i32 %123, i32 %124, i32 %125, i32 %126, i32 %127)
  ret i32 0
}

declare dso_local i32 @__isoc99_scanf(i8*, ...) #1

declare dso_local i32 @printf(i8*, ...) #1


!llvm.module.flags = !{!0}
!llvm.ident = !{!1}

!0 = !{i32 1, !"wchar_size", i32 4}
!1 = !{!"clang version 10.0.0-4ubuntu1 "}
